target datalayout = "e-m:e-p270:32:32-p271:32:32-p272:64:64-i64:64-i128:128-f80:128-n8:16:32:64-S128"
target triple = "x86_64-pc-linux-gnu"

%struct.nghttp2_settings_entry = type { i32, i32 }
%struct.http2_session_data = type { %struct.http2_stream_data, ptr, ptr, ptr, ptr }
%struct.http2_stream_data = type { ptr, ptr, ptr, i32, i32 }

@stderr = external global ptr, align 8
@.str.10 = private unnamed_addr constant [16 x i8] c"Fatal error: %s\00", align 1
@.str.13 = private unnamed_addr constant [14 x i8] c"%s connected\0A\00", align 1
@.str.14 = private unnamed_addr constant [3 x i8] c"h2\00", align 1
@.str.15 = private unnamed_addr constant [25 x i8] c"%s h2 is not negotiated\0A\00", align 1
@.str.16 = private unnamed_addr constant [8 x i8] c"%s EOF\0A\00", align 1
@.str.17 = private unnamed_addr constant [18 x i8] c"%s network error\0A\00", align 1
@.str.18 = private unnamed_addr constant [12 x i8] c"%s timeout\0A\00", align 1
@__const.send_server_connection_header.iv = private unnamed_addr constant [1 x %struct.nghttp2_settings_entry] [%struct.nghttp2_settings_entry { i32 3, i32 100 }], align 4

; Function Attrs: nounwind uwtable
define internal i32 @session_send(ptr noundef %0) #0 {
  %2 = alloca i32, align 4
  %3 = alloca ptr, align 8
  %4 = alloca i32, align 4
  %5 = alloca i32, align 4
  store ptr %0, ptr %3, align 8, !tbaa !44
  call void @llvm.lifetime.start.p0(i64 4, ptr %4) #11
  %6 = load ptr, ptr %3, align 8, !tbaa !44
  %7 = getelementptr inbounds nuw %struct.http2_session_data, ptr %6, i32 0, i32 3
  %8 = load ptr, ptr %7, align 8, !tbaa !55
  %9 = call i32 @nghttp2_session_send(ptr noundef %8)
  store i32 %9, ptr %4, align 4, !tbaa !4
  %10 = load i32, ptr %4, align 4, !tbaa !4
  %11 = icmp ne i32 %10, 0
  br i1 %11, label %12, label %15

12:                                               ; preds = %1
  %13 = load i32, ptr %4, align 4, !tbaa !4
  %14 = call ptr @nghttp2_strerror(i32 noundef %13)
  call void (ptr, ...) @warnx(ptr noundef @.str.10, ptr noundef %14)
  store i32 -1, ptr %2, align 4
  store i32 1, ptr %5, align 4
  br label %16

15:                                               ; preds = %1
  store i32 0, ptr %2, align 4
  store i32 1, ptr %5, align 4
  br label %16

16:                                               ; preds = %15, %12
  call void @llvm.lifetime.end.p0(i64 4, ptr %4) #11
  %17 = load i32, ptr %2, align 4
  ret i32 %17
}

; Function Attrs: nounwind uwtable
define internal i32 @send_server_connection_header(ptr noundef %0) #0 {
  %2 = alloca i32, align 4
  %3 = alloca ptr, align 8
  %4 = alloca [1 x %struct.nghttp2_settings_entry], align 4
  %5 = alloca i32, align 4
  %6 = alloca i32, align 4
  store ptr %0, ptr %3, align 8, !tbaa !44
  call void @llvm.lifetime.start.p0(i64 8, ptr %4) #11
  call void @llvm.memcpy.p0.p0.i64(ptr align 4 %4, ptr align 4 @__const.send_server_connection_header.iv, i64 8, i1 false)
  call void @llvm.lifetime.start.p0(i64 4, ptr %5) #11
  %7 = load ptr, ptr %3, align 8, !tbaa !44
  %8 = getelementptr inbounds nuw %struct.http2_session_data, ptr %7, i32 0, i32 3
  %9 = load ptr, ptr %8, align 8, !tbaa !55
  %10 = getelementptr inbounds [1 x %struct.nghttp2_settings_entry], ptr %4, i64 0, i64 0
  %11 = call i32 @nghttp2_submit_settings(ptr noundef %9, i8 noundef zeroext 0, ptr noundef %10, i64 noundef 1)
  store i32 %11, ptr %5, align 4, !tbaa !4
  %12 = load i32, ptr %5, align 4, !tbaa !4
  %13 = icmp ne i32 %12, 0
  br i1 %13, label %14, label %17

14:                                               ; preds = %1
  %15 = load i32, ptr %5, align 4, !tbaa !4
  %16 = call ptr @nghttp2_strerror(i32 noundef %15)
  call void (ptr, ...) @warnx(ptr noundef @.str.10, ptr noundef %16)
  store i32 -1, ptr %2, align 4
  store i32 1, ptr %6, align 4
  br label %18

17:                                               ; preds = %1
  store i32 0, ptr %2, align 4
  store i32 1, ptr %6, align 4
  br label %18

18:                                               ; preds = %17, %14
  call void @llvm.lifetime.end.p0(i64 4, ptr %5) #11
  call void @llvm.lifetime.end.p0(i64 8, ptr %4) #11
  %19 = load i32, ptr %2, align 4
  ret i32 %19
}

; Function Attrs: nounwind uwtable
define internal void @initialize_nghttp2_session(ptr noundef %0) #0 {
  %2 = alloca ptr, align 8
  %3 = alloca ptr, align 8
  store ptr %0, ptr %2, align 8, !tbaa !44
  call void @llvm.lifetime.start.p0(i64 8, ptr %3) #11
  %4 = call i32 @nghttp2_session_callbacks_new(ptr noundef %3)
  %5 = load ptr, ptr %3, align 8, !tbaa !68
  call void @nghttp2_session_callbacks_set_send_callback2(ptr noundef %5, ptr noundef @send_callback)
  %6 = load ptr, ptr %3, align 8, !tbaa !68
  call void @nghttp2_session_callbacks_set_on_frame_recv_callback(ptr noundef %6, ptr noundef @on_frame_recv_callback)
  %7 = load ptr, ptr %3, align 8, !tbaa !68
  call void @nghttp2_session_callbacks_set_on_stream_close_callback(ptr noundef %7, ptr noundef @on_stream_close_callback)
  %8 = load ptr, ptr %3, align 8, !tbaa !68
  call void @nghttp2_session_callbacks_set_on_header_callback(ptr noundef %8, ptr noundef @on_header_callback)
  %9 = load ptr, ptr %3, align 8, !tbaa !68
  call void @nghttp2_session_callbacks_set_on_begin_headers_callback(ptr noundef %9, ptr noundef @on_begin_headers_callback)
  %10 = load ptr, ptr %2, align 8, !tbaa !44
  %11 = getelementptr inbounds nuw %struct.http2_session_data, ptr %10, i32 0, i32 3
  %12 = load ptr, ptr %3, align 8, !tbaa !68
  %13 = load ptr, ptr %2, align 8, !tbaa !44
  %14 = call i32 @nghttp2_session_server_new(ptr noundef %11, ptr noundef %12, ptr noundef %13)
  %15 = load ptr, ptr %3, align 8, !tbaa !68
  call void @nghttp2_session_callbacks_del(ptr noundef %15)
  call void @llvm.lifetime.end.p0(i64 8, ptr %3) #11
  ret void
}

; Function Attrs: nounwind uwtable
define internal void @eventcb(ptr noundef %0, i16 noundef signext %1, ptr noundef %2) #0 {
  %4 = alloca ptr, align 8
  %5 = alloca i16, align 2
  %6 = alloca ptr, align 8
  %7 = alloca ptr, align 8
  %8 = alloca ptr, align 8
  %9 = alloca i32, align 4
  %10 = alloca ptr, align 8
  %11 = alloca i32, align 4
  store ptr %0, ptr %4, align 8, !tbaa !54
  store i16 %1, ptr %5, align 2, !tbaa !56
  store ptr %2, ptr %6, align 8, !tbaa !42
  call void @llvm.lifetime.start.p0(i64 8, ptr %7) #11
  %12 = load ptr, ptr %6, align 8, !tbaa !42
  store ptr %12, ptr %7, align 8, !tbaa !44
  %13 = load i16, ptr %5, align 2, !tbaa !56
  %14 = sext i16 %13 to i32
  %15 = and i32 %14, 128
  %16 = icmp ne i32 %15, 0
  br i1 %16, label %17, label %57

17:                                               ; preds = %3
  call void @llvm.lifetime.start.p0(i64 8, ptr %8) #11
  store ptr null, ptr %8, align 8, !tbaa !15
  call void @llvm.lifetime.start.p0(i64 4, ptr %9) #11
  store i32 0, ptr %9, align 4, !tbaa !4
  call void @llvm.lifetime.start.p0(i64 8, ptr %10) #11
  %18 = load ptr, ptr @stderr, align 8, !tbaa !12
  %19 = load ptr, ptr %7, align 8, !tbaa !44
  %20 = getelementptr inbounds nuw %struct.http2_session_data, ptr %19, i32 0, i32 4
  %21 = load ptr, ptr %20, align 8, !tbaa !53
  %22 = call i32 (ptr, ptr, ...) @fprintf(ptr noundef %18, ptr noundef @.str.13, ptr noundef %21) #11
  %23 = load ptr, ptr %7, align 8, !tbaa !44
  %24 = getelementptr inbounds nuw %struct.http2_session_data, ptr %23, i32 0, i32 1
  %25 = load ptr, ptr %24, align 8, !tbaa !46
  %26 = call ptr @bufferevent_openssl_get_ssl(ptr noundef %25)
  store ptr %26, ptr %10, align 8, !tbaa !40
  %27 = load ptr, ptr %10, align 8, !tbaa !40
  call void @SSL_get0_alpn_selected(ptr noundef %27, ptr noundef %8, ptr noundef %9)
  %28 = load ptr, ptr %8, align 8, !tbaa !15
  %29 = icmp eq ptr %28, null
  br i1 %29, label %37, label %30

30:                                               ; preds = %17
  %31 = load i32, ptr %9, align 4, !tbaa !4
  %32 = icmp ne i32 %31, 2
  br i1 %32, label %37, label %33

33:                                               ; preds = %30
  %34 = load ptr, ptr %8, align 8, !tbaa !15
  %35 = call i32 @memcmp(ptr noundef @.str.14, ptr noundef %34, i64 noundef 2) #15
  %36 = icmp ne i32 %35, 0
  br i1 %36, label %37, label %44

37:                                               ; preds = %33, %30, %17
  %38 = load ptr, ptr @stderr, align 8, !tbaa !12
  %39 = load ptr, ptr %7, align 8, !tbaa !44
  %40 = getelementptr inbounds nuw %struct.http2_session_data, ptr %39, i32 0, i32 4
  %41 = load ptr, ptr %40, align 8, !tbaa !53
  %42 = call i32 (ptr, ptr, ...) @fprintf(ptr noundef %38, ptr noundef @.str.15, ptr noundef %41) #11
  %43 = load ptr, ptr %7, align 8, !tbaa !44
  call void @delete_http2_session_data(ptr noundef %43)
  store i32 1, ptr %11, align 4
  br label %56

44:                                               ; preds = %33
  %45 = load ptr, ptr %7, align 8, !tbaa !44
  call void @initialize_nghttp2_session(ptr noundef %45)
  %46 = load ptr, ptr %7, align 8, !tbaa !44
  %47 = call i32 @send_server_connection_header(ptr noundef %46)
  %48 = icmp ne i32 %47, 0
  br i1 %48, label %53, label %49

49:                                               ; preds = %44
  %50 = load ptr, ptr %7, align 8, !tbaa !44
  %51 = call i32 @session_send(ptr noundef %50)
  %52 = icmp ne i32 %51, 0
  br i1 %52, label %53, label %55

53:                                               ; preds = %49, %44
  %54 = load ptr, ptr %7, align 8, !tbaa !44
  call void @delete_http2_session_data(ptr noundef %54)
  store i32 1, ptr %11, align 4
  br label %56

55:                                               ; preds = %49
  store i32 1, ptr %11, align 4
  br label %56

56:                                               ; preds = %55, %53, %37
  call void @llvm.lifetime.end.p0(i64 8, ptr %10) #11
  call void @llvm.lifetime.end.p0(i64 4, ptr %9) #11
  call void @llvm.lifetime.end.p0(i64 8, ptr %8) #11
  br label %94

57:                                               ; preds = %3
  %58 = load i16, ptr %5, align 2, !tbaa !56
  %59 = sext i16 %58 to i32
  %60 = and i32 %59, 16
  %61 = icmp ne i32 %60, 0
  br i1 %61, label %62, label %68

62:                                               ; preds = %57
  %63 = load ptr, ptr @stderr, align 8, !tbaa !12
  %64 = load ptr, ptr %7, align 8, !tbaa !44
  %65 = getelementptr inbounds nuw %struct.http2_session_data, ptr %64, i32 0, i32 4
  %66 = load ptr, ptr %65, align 8, !tbaa !53
  %67 = call i32 (ptr, ptr, ...) @fprintf(ptr noundef %63, ptr noundef @.str.16, ptr noundef %66) #11
  br label %92

68:                                               ; preds = %57
  %69 = load i16, ptr %5, align 2, !tbaa !56
  %70 = sext i16 %69 to i32
  %71 = and i32 %70, 32
  %72 = icmp ne i32 %71, 0
  br i1 %72, label %73, label %79

73:                                               ; preds = %68
  %74 = load ptr, ptr @stderr, align 8, !tbaa !12
  %75 = load ptr, ptr %7, align 8, !tbaa !44
  %76 = getelementptr inbounds nuw %struct.http2_session_data, ptr %75, i32 0, i32 4
  %77 = load ptr, ptr %76, align 8, !tbaa !53
  %78 = call i32 (ptr, ptr, ...) @fprintf(ptr noundef %74, ptr noundef @.str.17, ptr noundef %77) #11
  br label %91

79:                                               ; preds = %68
  %80 = load i16, ptr %5, align 2, !tbaa !56
  %81 = sext i16 %80 to i32
  %82 = and i32 %81, 64
  %83 = icmp ne i32 %82, 0
  br i1 %83, label %84, label %90

84:                                               ; preds = %79
  %85 = load ptr, ptr @stderr, align 8, !tbaa !12
  %86 = load ptr, ptr %7, align 8, !tbaa !44
  %87 = getelementptr inbounds nuw %struct.http2_session_data, ptr %86, i32 0, i32 4
  %88 = load ptr, ptr %87, align 8, !tbaa !53
  %89 = call i32 (ptr, ptr, ...) @fprintf(ptr noundef %85, ptr noundef @.str.18, ptr noundef %88) #11
  br label %90

90:                                               ; preds = %84, %79
  br label %91

91:                                               ; preds = %90, %73
  br label %92

92:                                               ; preds = %91, %62
  %93 = load ptr, ptr %7, align 8, !tbaa !44
  call void @delete_http2_session_data(ptr noundef %93)
  store i32 0, ptr %11, align 4
  br label %94

94:                                               ; preds = %92, %56
  call void @llvm.lifetime.end.p0(i64 8, ptr %7) #11
  %95 = load i32, ptr %11, align 4
  switch i32 %95, label %97 [
    i32 0, label %96
    i32 1, label %96
  ]

96:                                               ; preds = %94, %94
  ret void

97:                                               ; preds = %94
  unreachable
}