; Function Attrs: cold nounwind uwtable
define internal void @eventcb(ptr readnone captures(none) %0, i16 noundef signext %1, ptr noundef %2) #8 {
  %4 = alloca [1 x %struct.nghttp2_settings_entry], align 8
  %5 = alloca ptr, align 8
  %6 = alloca ptr, align 8
  %7 = alloca i32, align 4
  %8 = and i16 %1, 128
  %.not = icmp eq i16 %8, 0
  br i1 %.not, label %42, label %9

9:                                                ; preds = %3
  call void @llvm.lifetime.start.p0(i64 8, ptr nonnull %6) #21
  store ptr null, ptr %6, align 8, !tbaa !10
  call void @llvm.lifetime.start.p0(i64 4, ptr nonnull %7) #21
  store i32 0, ptr %7, align 4, !tbaa !28
  %10 = load ptr, ptr @stderr, align 8, !tbaa !4
  %11 = getelementptr inbounds nuw i8, ptr %2, i64 56
  %12 = load ptr, ptr %11, align 8, !tbaa !37
  %13 = tail call i32 (ptr, ptr, ...) @fprintf(ptr noundef %10, ptr noundef nonnull @.str.13, ptr noundef %12) #25
  %14 = getelementptr inbounds nuw i8, ptr %2, i64 32
  %15 = load ptr, ptr %14, align 8, !tbaa !36
  %16 = tail call ptr @bufferevent_openssl_get_ssl(ptr noundef %15) #21
  call void @SSL_get0_alpn_selected(ptr noundef %16, ptr noundef nonnull %6, ptr noundef nonnull %7) #21
  %17 = load ptr, ptr %6, align 8, !tbaa !10
  %18 = icmp eq ptr %17, null
  %19 = load i32, ptr %7, align 4
  %20 = icmp ne i32 %19, 2
  %or.cond = select i1 %18, i1 true, i1 %20
  br i1 %or.cond, label %22, label %21

21:                                               ; preds = %9
  %bcmp = call i32 @bcmp(ptr noundef nonnull dereferenceable(2) @.str.14, ptr noundef nonnull dereferenceable(2) %17, i64 2)
  %.not21 = icmp eq i32 %bcmp, 0
  br i1 %.not21, label %26, label %22

22:                                               ; preds = %21, %9
  %23 = load ptr, ptr @stderr, align 8, !tbaa !4
  %24 = load ptr, ptr %11, align 8, !tbaa !37
  %25 = call i32 (ptr, ptr, ...) @fprintf(ptr noundef %23, ptr noundef nonnull @.str.15, ptr noundef %24) #25
  br label %session_send.exit.thread.sink.split

26:                                               ; preds = %21
  call void @llvm.lifetime.start.p0(i64 8, ptr nonnull %5) #21
  %27 = call i32 @nghttp2_session_callbacks_new(ptr noundef nonnull %5) #21
  %28 = load ptr, ptr %5, align 8, !tbaa !39
  call void @nghttp2_session_callbacks_set_send_callback2(ptr noundef %28, ptr noundef nonnull @send_callback) #21
  %29 = load ptr, ptr %5, align 8, !tbaa !39
  call void @nghttp2_session_callbacks_set_on_frame_recv_callback(ptr noundef %29, ptr noundef nonnull @on_frame_recv_callback) #21
  %30 = load ptr, ptr %5, align 8, !tbaa !39
  call void @nghttp2_session_callbacks_set_on_stream_close_callback(ptr noundef %30, ptr noundef nonnull @on_stream_close_callback) #21
  %31 = load ptr, ptr %5, align 8, !tbaa !39
  call void @nghttp2_session_callbacks_set_on_header_callback(ptr noundef %31, ptr noundef nonnull @on_header_callback) #21
  %32 = load ptr, ptr %5, align 8, !tbaa !39
  call void @nghttp2_session_callbacks_set_on_begin_headers_callback(ptr noundef %32, ptr noundef nonnull @on_begin_headers_callback) #21
  %33 = getelementptr inbounds nuw i8, ptr %2, i64 48
  %34 = load ptr, ptr %5, align 8, !tbaa !39
  %35 = call i32 @nghttp2_session_server_new(ptr noundef nonnull %33, ptr noundef %34, ptr noundef nonnull %2) #21
  %36 = load ptr, ptr %5, align 8, !tbaa !39
  call void @nghttp2_session_callbacks_del(ptr noundef %36) #21
  call void @llvm.lifetime.end.p0(i64 8, ptr nonnull %5) #21
  %.val = load ptr, ptr %33, align 8, !tbaa !38
  call void @llvm.lifetime.start.p0(i64 8, ptr nonnull %4) #21
  store i64 429496729603, ptr %4, align 8
  %37 = call i32 @nghttp2_submit_settings(ptr noundef %.val, i8 noundef zeroext 0, ptr noundef nonnull %4, i64 noundef 1) #21
  %.not.i = icmp eq i32 %37, 0
  br i1 %.not.i, label %39, label %send_server_connection_header.exit

send_server_connection_header.exit:               ; preds = %26
  %38 = call ptr @nghttp2_strerror(i32 noundef %37) #21
  call void (ptr, ...) @warnx(ptr noundef nonnull @.str.10, ptr noundef %38) #21
  call void @llvm.lifetime.end.p0(i64 8, ptr nonnull %4) #21
  br label %session_send.exit.thread.sink.split

39:                                               ; preds = %26
  call void @llvm.lifetime.end.p0(i64 8, ptr nonnull %4) #21
  %.val24 = load ptr, ptr %33, align 8, !tbaa !38
  %40 = call i32 @nghttp2_session_send(ptr noundef %.val24) #21
  %.not.i25 = icmp eq i32 %40, 0
  br i1 %.not.i25, label %session_send.exit.thread, label %session_send.exit

session_send.exit:                                ; preds = %39
  %41 = call ptr @nghttp2_strerror(i32 noundef %40) #21
  call void (ptr, ...) @warnx(ptr noundef nonnull @.str.10, ptr noundef %41) #21
  br label %session_send.exit.thread.sink.split

session_send.exit.thread.sink.split:              ; preds = %send_server_connection_header.exit, %session_send.exit, %22
  call fastcc void @delete_http2_session_data(ptr noundef nonnull %2)
  br label %session_send.exit.thread

session_send.exit.thread:                         ; preds = %session_send.exit.thread.sink.split, %39
  call void @llvm.lifetime.end.p0(i64 4, ptr nonnull %7) #21
  call void @llvm.lifetime.end.p0(i64 8, ptr nonnull %6) #21
  br label %53

42:                                               ; preds = %3
  %43 = and i16 %1, 16
  %.not18 = icmp eq i16 %43, 0
  br i1 %.not18, label %44, label %.sink.split

44:                                               ; preds = %42
  %45 = and i16 %1, 32
  %.not19 = icmp eq i16 %45, 0
  br i1 %.not19, label %46, label %.sink.split

46:                                               ; preds = %44
  %47 = and i16 %1, 64
  %.not20 = icmp eq i16 %47, 0
  br i1 %.not20, label %52, label %.sink.split

.sink.split:                                      ; preds = %46, %44, %42
  %.str.17.sink = phi ptr [ @.str.16, %42 ], [ @.str.17, %44 ], [ @.str.18, %46 ]
  %48 = load ptr, ptr @stderr, align 8, !tbaa !4
  %49 = getelementptr inbounds nuw i8, ptr %2, i64 56
  %50 = load ptr, ptr %49, align 8, !tbaa !37
  %51 = tail call i32 (ptr, ptr, ...) @fprintf(ptr noundef %48, ptr noundef nonnull %.str.17.sink, ptr noundef %50) #25
  br label %52

52:                                               ; preds = %.sink.split, %46
  tail call fastcc void @delete_http2_session_data(ptr noundef %2)
  br label %53

53:                                               ; preds = %52, %session_send.exit.thread
  ret void
}